	.file	"templ.c"
	.section	.rodata
.LC0:
	.string	"%d\n"
	.text
	.globl	print
	.type	print, @function
print:
.LFB2:
	.cfi_startproc
	pushq	%rbp
	.cfi_def_cfa_offset 16
	.cfi_offset 6, -16
	movq	%rsp, %rbp
	.cfi_def_cfa_register 6
	subq	$16, %rsp
	movl	%edi, -4(%rbp)
	movl	-4(%rbp), %eax
	movl	%eax, %esi
	movl	$.LC0, %edi
	movl	$0, %eax
	call	printf
	movl	$0, %edi
	call	exit
	.cfi_endproc
.LFE2:
	.size	print, .-print
	.globl	main
	.type	main, @function
main:
.LFB3:
	.cfi_startproc
	pushq	%rbp									## Frame used by the call of the call to main. "This is where we're starting the stack now. Everything between the stack pointer and the base pointer is our stack"
	.cfi_def_cfa_offset 16
	.cfi_offset 6, -16
	movq	%rsp, %rbp
	.cfi_def_cfa_register 6
	subq	$16, %rsp
	movl	$260, -4(%rbp)
	## We will put our assembly code here. Store the value to print in the %edi register


	# Generated code START
	push	$5
	push	$0
	# offset 2
	mov	-32(%rbp), %rax
	push	%rax
	push	$10
	# offset 1
	mov	-24(%rbp), %rax
	push	%rax
	pop	%rbx
	pop	%rax
	mov	$0, %rdx
	cqto
	idivq	%rbx
	push	%rax
### Incrementing Stack Pointer: 6
	pop	%rax
	pop	%rbx
	add	%rax, %rbx
	push	%rbx
### Incrementing Stack Pointer: 7
	pop	%rax
	pop	%rbx
	push	%rax
	pop	%rax
	pop	%rbx
	push	%rax

	# Push the top of the stack onto the output register
	pop	-4(%rbp)
	movl	-4(%rbp), %eax
	movl	%eax, %edi
	# Generated code END


	call	print
	movl	$1, %eax
	leave
	.cfi_def_cfa 7, 8
	ret
	.cfi_endproc
.LFE3:
	.size	main, .-main
	.ident	"GCC: (Ubuntu 5.4.0-6ubuntu1~16.04.2) 5.4.0 20160609"
	.section	.note.GNU-stack,"",@progbits
