	.file	"templ.c"
	.section	.rodata
.LC0:
	.string	"%d\n"
	.text
	.globl	print
	.type	print, @function
print:
.LFB2:
	.cfi_startproc
	pushq	%rbp
	.cfi_def_cfa_offset 16
	.cfi_offset 6, -16
	movq	%rsp, %rbp
	.cfi_def_cfa_register 6
	subq	$16, %rsp
	movl	%edi, -4(%rbp)
	movl	-4(%rbp), %eax
	movl	%eax, %esi
	movl	$.LC0, %edi
	movl	$0, %eax
	call	printf
	movl	$0, %edi
	call	exit
	.cfi_endproc
.LFE2:
	.size	print, .-print
	.globl	main
	.type	main, @function
main:
.LFB3:
	.cfi_startproc
	pushq	%rbp									## Frame used by the call of the call to main. "This is where we're starting the stack now. Everything between the stack pointer and the base pointer is our stack"
	.cfi_def_cfa_offset 16
	.cfi_offset 6, -16
	movq	%rsp, %rbp
	.cfi_def_cfa_register 6
	subq	$16, %rsp
	movl	$260, -4(%rbp)
	## We will put our assembly code here. Store the value to print in the %edi register

	## Why does this code say eax, but his says edi? Different offsets?
	##movl	-4(%rbp), %eax ## This line can be removed; this moves y into the argument for print
	movl	%eax, %edi
	call	print
	movl	$1, %eax
	leave
	.cfi_def_cfa 7, 8
	ret
	.cfi_endproc
.LFE3:
	.size	main, .-main
	.ident	"GCC: (Ubuntu 5.4.0-6ubuntu1~16.04.2) 5.4.0 20160609"
	.section	.note.GNU-stack,"",@progbits
